
test_pwm_out.elf:     file format elf32-littlearm

Sections:
Idx Name          Size      VMA       LMA       File off  Algn
  0 .isr_vector   00000198  08000000  08000000  00010000  2**0
                  CONTENTS, ALLOC, LOAD, READONLY, DATA
  1 .text         00000810  08000198  08000198  00010198  2**2
                  CONTENTS, ALLOC, LOAD, READONLY, CODE
  2 .rodata       00000018  080009a8  080009a8  000109a8  2**2
                  CONTENTS, ALLOC, LOAD, READONLY, DATA
  3 .ARM.extab    00000000  080009c0  080009c0  0002002c  2**0
                  CONTENTS
  4 .ARM          00000000  080009c0  080009c0  0002002c  2**0
                  CONTENTS
  5 .preinit_array 00000000  080009c0  080009c0  0002002c  2**0
                  CONTENTS, ALLOC, LOAD, DATA
  6 .init_array   00000004  080009c0  080009c0  000109c0  2**2
                  CONTENTS, ALLOC, LOAD, DATA
  7 .fini_array   00000004  080009c4  080009c4  000109c4  2**2
                  CONTENTS, ALLOC, LOAD, DATA
  8 .data         0000002c  20000000  080009c8  00020000  2**2
                  CONTENTS, ALLOC, LOAD, DATA
  9 .bss          00000020  2000002c  080009f4  0002002c  2**2
                  ALLOC
 10 ._user_heap_stack 00000604  2000004c  080009f4  0002004c  2**0
                  ALLOC
 11 .ARM.attributes 00000030  00000000  00000000  0002002c  2**0
                  CONTENTS, READONLY
 12 .debug_info   0000119f  00000000  00000000  0002005c  2**0
                  CONTENTS, READONLY, DEBUGGING, OCTETS
 13 .debug_abbrev 0000053b  00000000  00000000  000211fb  2**0
                  CONTENTS, READONLY, DEBUGGING, OCTETS
 14 .debug_aranges 000001a8  00000000  00000000  00021738  2**3
                  CONTENTS, READONLY, DEBUGGING, OCTETS
 15 .debug_ranges 00000140  00000000  00000000  000218e0  2**3
                  CONTENTS, READONLY, DEBUGGING, OCTETS
 16 .debug_macro  0000ded8  00000000  00000000  00021a20  2**0
                  CONTENTS, READONLY, DEBUGGING, OCTETS
 17 .debug_line   00001971  00000000  00000000  0002f8f8  2**0
                  CONTENTS, READONLY, DEBUGGING, OCTETS
 18 .debug_str    000503d0  00000000  00000000  00031269  2**0
                  CONTENTS, READONLY, DEBUGGING, OCTETS
 19 .comment      00000053  00000000  00000000  00081639  2**0
                  CONTENTS, READONLY
 20 .debug_frame  00000490  00000000  00000000  0008168c  2**2
                  CONTENTS, READONLY, DEBUGGING, OCTETS

Disassembly of section .text:

08000198 <__do_global_dtors_aux>:
 8000198:	b510      	push	{r4, lr}
 800019a:	4c05      	ldr	r4, [pc, #20]	; (80001b0 <__do_global_dtors_aux+0x18>)
 800019c:	7823      	ldrb	r3, [r4, #0]
 800019e:	b933      	cbnz	r3, 80001ae <__do_global_dtors_aux+0x16>
 80001a0:	4b04      	ldr	r3, [pc, #16]	; (80001b4 <__do_global_dtors_aux+0x1c>)
 80001a2:	b113      	cbz	r3, 80001aa <__do_global_dtors_aux+0x12>
 80001a4:	4804      	ldr	r0, [pc, #16]	; (80001b8 <__do_global_dtors_aux+0x20>)
 80001a6:	f3af 8000 	nop.w
 80001aa:	2301      	movs	r3, #1
 80001ac:	7023      	strb	r3, [r4, #0]
 80001ae:	bd10      	pop	{r4, pc}
 80001b0:	2000002c 	.word	0x2000002c
 80001b4:	00000000 	.word	0x00000000
 80001b8:	08000990 	.word	0x08000990

080001bc <frame_dummy>:
 80001bc:	b508      	push	{r3, lr}
 80001be:	4b03      	ldr	r3, [pc, #12]	; (80001cc <frame_dummy+0x10>)
 80001c0:	b11b      	cbz	r3, 80001ca <frame_dummy+0xe>
 80001c2:	4903      	ldr	r1, [pc, #12]	; (80001d0 <frame_dummy+0x14>)
 80001c4:	4803      	ldr	r0, [pc, #12]	; (80001d4 <frame_dummy+0x18>)
 80001c6:	f3af 8000 	nop.w
 80001ca:	bd08      	pop	{r3, pc}
 80001cc:	00000000 	.word	0x00000000
 80001d0:	20000030 	.word	0x20000030
 80001d4:	08000990 	.word	0x08000990

080001d8 <rcc_init>:
#include <stdint.h>
#define RCC_ADDR 0x40023800
#define FLASH_ADDR 0x40023C00

void rcc_init(void)
{
 80001d8:	b480      	push	{r7}
 80001da:	b085      	sub	sp, #20
 80001dc:	af00      	add	r7, sp, #0
    uint32_t* RCC_CR=(uint32_t*)(RCC_ADDR + 0x00);
 80001de:	4b4a      	ldr	r3, [pc, #296]	; (8000308 <rcc_init+0x130>)
 80001e0:	60fb      	str	r3, [r7, #12]
    uint32_t* RCC_PLLCFGR=(uint32_t*)(RCC_ADDR + 0x04);
 80001e2:	4b4a      	ldr	r3, [pc, #296]	; (800030c <rcc_init+0x134>)
 80001e4:	60bb      	str	r3, [r7, #8]
    uint32_t* RCC_CFGR=(uint32_t*)(RCC_ADDR + 0x08);
 80001e6:	4b4a      	ldr	r3, [pc, #296]	; (8000310 <rcc_init+0x138>)
 80001e8:	607b      	str	r3, [r7, #4]
    uint32_t* FLASH_ACR=(uint32_t*)(FLASH_ADDR + 0x00);
 80001ea:	4b4a      	ldr	r3, [pc, #296]	; (8000314 <rcc_init+0x13c>)
 80001ec:	603b      	str	r3, [r7, #0]

    * RCC_CR |= (1<<16); // HSE on 
 80001ee:	68fb      	ldr	r3, [r7, #12]
 80001f0:	681b      	ldr	r3, [r3, #0]
 80001f2:	f443 3280 	orr.w	r2, r3, #65536	; 0x10000
 80001f6:	68fb      	ldr	r3, [r7, #12]
 80001f8:	601a      	str	r2, [r3, #0]
    while (((* RCC_CR >> 17) & 1) ==0); // Wait flag HSE ready
 80001fa:	bf00      	nop
 80001fc:	68fb      	ldr	r3, [r7, #12]
 80001fe:	681b      	ldr	r3, [r3, #0]
 8000200:	0c5b      	lsrs	r3, r3, #17
 8000202:	f003 0301 	and.w	r3, r3, #1
 8000206:	2b00      	cmp	r3, #0
 8000208:	d0f8      	beq.n	80001fc <rcc_init+0x24>

    * FLASH_ACR &= ~(0b1111 <<0);
 800020a:	683b      	ldr	r3, [r7, #0]
 800020c:	681b      	ldr	r3, [r3, #0]
 800020e:	f023 020f 	bic.w	r2, r3, #15
 8000212:	683b      	ldr	r3, [r7, #0]
 8000214:	601a      	str	r2, [r3, #0]
    * FLASH_ACR |= (0b0011 <<0); // Flash latency 3 WS for 100 MHz
 8000216:	683b      	ldr	r3, [r7, #0]
 8000218:	681b      	ldr	r3, [r3, #0]
 800021a:	f043 0203 	orr.w	r2, r3, #3
 800021e:	683b      	ldr	r3, [r7, #0]
 8000220:	601a      	str	r2, [r3, #0]

    * RCC_PLLCFGR &= ~(0b111111 <<0); // HSE 25 MHz / 25 = 1 MHz
 8000222:	68bb      	ldr	r3, [r7, #8]
 8000224:	681b      	ldr	r3, [r3, #0]
 8000226:	f023 023f 	bic.w	r2, r3, #63	; 0x3f
 800022a:	68bb      	ldr	r3, [r7, #8]
 800022c:	601a      	str	r2, [r3, #0]
    * RCC_PLLCFGR |= (25 << 0);
 800022e:	68bb      	ldr	r3, [r7, #8]
 8000230:	681b      	ldr	r3, [r3, #0]
 8000232:	f043 0219 	orr.w	r2, r3, #25
 8000236:	68bb      	ldr	r3, [r7, #8]
 8000238:	601a      	str	r2, [r3, #0]

    * RCC_PLLCFGR &= ~(0b111111111 << 6); // 1 MHz * 200 = 200 MHz
 800023a:	68bb      	ldr	r3, [r7, #8]
 800023c:	681b      	ldr	r3, [r3, #0]
 800023e:	f423 43ff 	bic.w	r3, r3, #32640	; 0x7f80
 8000242:	f023 0340 	bic.w	r3, r3, #64	; 0x40
 8000246:	68ba      	ldr	r2, [r7, #8]
 8000248:	6013      	str	r3, [r2, #0]
    * RCC_PLLCFGR |= (200 << 6);
 800024a:	68bb      	ldr	r3, [r7, #8]
 800024c:	681b      	ldr	r3, [r3, #0]
 800024e:	f443 5248 	orr.w	r2, r3, #12800	; 0x3200
 8000252:	68bb      	ldr	r3, [r7, #8]
 8000254:	601a      	str	r2, [r3, #0]

    * RCC_PLLCFGR &= ~(0b11 << 16); // 200 MHz / 2 = 100 MHz SYSCLK
 8000256:	68bb      	ldr	r3, [r7, #8]
 8000258:	681b      	ldr	r3, [r3, #0]
 800025a:	f423 3240 	bic.w	r2, r3, #196608	; 0x30000
 800025e:	68bb      	ldr	r3, [r7, #8]
 8000260:	601a      	str	r2, [r3, #0]
    * RCC_PLLCFGR |= (0 << 16);
 8000262:	68bb      	ldr	r3, [r7, #8]
 8000264:	681a      	ldr	r2, [r3, #0]
 8000266:	68bb      	ldr	r3, [r7, #8]
 8000268:	601a      	str	r2, [r3, #0]

    * RCC_PLLCFGR |= (1 << 22); // Set HSE for PLL
 800026a:	68bb      	ldr	r3, [r7, #8]
 800026c:	681b      	ldr	r3, [r3, #0]
 800026e:	f443 0280 	orr.w	r2, r3, #4194304	; 0x400000
 8000272:	68bb      	ldr	r3, [r7, #8]
 8000274:	601a      	str	r2, [r3, #0]

    * RCC_CR |= (1<<24); // PLL on 
 8000276:	68fb      	ldr	r3, [r7, #12]
 8000278:	681b      	ldr	r3, [r3, #0]
 800027a:	f043 7280 	orr.w	r2, r3, #16777216	; 0x1000000
 800027e:	68fb      	ldr	r3, [r7, #12]
 8000280:	601a      	str	r2, [r3, #0]
    while (((* RCC_CR >> 25) & 1) ==0); // Wait flag PLL ready
 8000282:	bf00      	nop
 8000284:	68fb      	ldr	r3, [r7, #12]
 8000286:	681b      	ldr	r3, [r3, #0]
 8000288:	0e5b      	lsrs	r3, r3, #25
 800028a:	f003 0301 	and.w	r3, r3, #1
 800028e:	2b00      	cmp	r3, #0
 8000290:	d0f8      	beq.n	8000284 <rcc_init+0xac>

    * RCC_CFGR &= ~(0b1111 << 4); // AHB clock not divided
 8000292:	687b      	ldr	r3, [r7, #4]
 8000294:	681b      	ldr	r3, [r3, #0]
 8000296:	f023 02f0 	bic.w	r2, r3, #240	; 0xf0
 800029a:	687b      	ldr	r3, [r7, #4]
 800029c:	601a      	str	r2, [r3, #0]
    * RCC_CFGR |= (0b0000 << 4);
 800029e:	687b      	ldr	r3, [r7, #4]
 80002a0:	681a      	ldr	r2, [r3, #0]
 80002a2:	687b      	ldr	r3, [r7, #4]
 80002a4:	601a      	str	r2, [r3, #0]

    * RCC_CFGR &= ~(0b111 << 10); // APB1 clock divided by 2
 80002a6:	687b      	ldr	r3, [r7, #4]
 80002a8:	681b      	ldr	r3, [r3, #0]
 80002aa:	f423 52e0 	bic.w	r2, r3, #7168	; 0x1c00
 80002ae:	687b      	ldr	r3, [r7, #4]
 80002b0:	601a      	str	r2, [r3, #0]
    * RCC_CFGR |= (0b100 << 10);
 80002b2:	687b      	ldr	r3, [r7, #4]
 80002b4:	681b      	ldr	r3, [r3, #0]
 80002b6:	f443 5280 	orr.w	r2, r3, #4096	; 0x1000
 80002ba:	687b      	ldr	r3, [r7, #4]
 80002bc:	601a      	str	r2, [r3, #0]

    * RCC_CFGR &= ~(0b111 << 13); // APB2 clock not divided
 80002be:	687b      	ldr	r3, [r7, #4]
 80002c0:	681b      	ldr	r3, [r3, #0]
 80002c2:	f423 4260 	bic.w	r2, r3, #57344	; 0xe000
 80002c6:	687b      	ldr	r3, [r7, #4]
 80002c8:	601a      	str	r2, [r3, #0]
    * RCC_CFGR |= (0b000 << 13);
 80002ca:	687b      	ldr	r3, [r7, #4]
 80002cc:	681a      	ldr	r2, [r3, #0]
 80002ce:	687b      	ldr	r3, [r7, #4]
 80002d0:	601a      	str	r2, [r3, #0]
 
    * RCC_CFGR &= ~(0b11 << 0);
 80002d2:	687b      	ldr	r3, [r7, #4]
 80002d4:	681b      	ldr	r3, [r3, #0]
 80002d6:	f023 0203 	bic.w	r2, r3, #3
 80002da:	687b      	ldr	r3, [r7, #4]
 80002dc:	601a      	str	r2, [r3, #0]
    * RCC_CFGR |= (0b10 <<0); // PLL -> SysClock
 80002de:	687b      	ldr	r3, [r7, #4]
 80002e0:	681b      	ldr	r3, [r3, #0]
 80002e2:	f043 0202 	orr.w	r2, r3, #2
 80002e6:	687b      	ldr	r3, [r7, #4]
 80002e8:	601a      	str	r2, [r3, #0]
    while (((* RCC_CFGR >> 2) & 0b11) != 0b10);
 80002ea:	bf00      	nop
 80002ec:	687b      	ldr	r3, [r7, #4]
 80002ee:	681b      	ldr	r3, [r3, #0]
 80002f0:	089b      	lsrs	r3, r3, #2
 80002f2:	f003 0303 	and.w	r3, r3, #3
 80002f6:	2b02      	cmp	r3, #2
 80002f8:	d1f8      	bne.n	80002ec <rcc_init+0x114>
}
 80002fa:	bf00      	nop
 80002fc:	bf00      	nop
 80002fe:	3714      	adds	r7, #20
 8000300:	46bd      	mov	sp, r7
 8000302:	f85d 7b04 	ldr.w	r7, [sp], #4
 8000306:	4770      	bx	lr
 8000308:	40023800 	.word	0x40023800
 800030c:	40023804 	.word	0x40023804
 8000310:	40023808 	.word	0x40023808
 8000314:	40023c00 	.word	0x40023c00

08000318 <clock_init>:

void clock_init(void)
{
 8000318:	b580      	push	{r7, lr}
 800031a:	af00      	add	r7, sp, #0
    rcc_init();
 800031c:	f7ff ff5c 	bl	80001d8 <rcc_init>
}
 8000320:	bf00      	nop
 8000322:	bd80      	pop	{r7, pc}

08000324 <clock_enable_AHB1>:

void clock_enable_AHB1(AHB1_peripheral_t peripheral)
{
 8000324:	b480      	push	{r7}
 8000326:	b085      	sub	sp, #20
 8000328:	af00      	add	r7, sp, #0
 800032a:	4603      	mov	r3, r0
 800032c:	71fb      	strb	r3, [r7, #7]
    uint32_t* RCC_AHB1ENR= (uint32_t*)(RCC_ADDR + 0x30);
 800032e:	4b08      	ldr	r3, [pc, #32]	; (8000350 <clock_enable_AHB1+0x2c>)
 8000330:	60fb      	str	r3, [r7, #12]
    * RCC_AHB1ENR |= (1<< peripheral);
 8000332:	68fb      	ldr	r3, [r7, #12]
 8000334:	681b      	ldr	r3, [r3, #0]
 8000336:	79fa      	ldrb	r2, [r7, #7]
 8000338:	2101      	movs	r1, #1
 800033a:	fa01 f202 	lsl.w	r2, r1, r2
 800033e:	431a      	orrs	r2, r3
 8000340:	68fb      	ldr	r3, [r7, #12]
 8000342:	601a      	str	r2, [r3, #0]
}
 8000344:	bf00      	nop
 8000346:	3714      	adds	r7, #20
 8000348:	46bd      	mov	sp, r7
 800034a:	f85d 7b04 	ldr.w	r7, [sp], #4
 800034e:	4770      	bx	lr
 8000350:	40023830 	.word	0x40023830

08000354 <clock_enable_APB1>:
    uint32_t* RCC_AHB2ENR= (uint32_t*)(RCC_ADDR + 0x34);
    * RCC_AHB2ENR |= (1<< peripheral);
}

void clock_enable_APB1(APB1_peripheral_t peripheral)
{
 8000354:	b480      	push	{r7}
 8000356:	b085      	sub	sp, #20
 8000358:	af00      	add	r7, sp, #0
 800035a:	4603      	mov	r3, r0
 800035c:	71fb      	strb	r3, [r7, #7]
    uint32_t* RCC_APB1ENR= (uint32_t*)(RCC_ADDR + 0x40);
 800035e:	4b08      	ldr	r3, [pc, #32]	; (8000380 <clock_enable_APB1+0x2c>)
 8000360:	60fb      	str	r3, [r7, #12]
    * RCC_APB1ENR |= (1<< peripheral);
 8000362:	68fb      	ldr	r3, [r7, #12]
 8000364:	681b      	ldr	r3, [r3, #0]
 8000366:	79fa      	ldrb	r2, [r7, #7]
 8000368:	2101      	movs	r1, #1
 800036a:	fa01 f202 	lsl.w	r2, r1, r2
 800036e:	431a      	orrs	r2, r3
 8000370:	68fb      	ldr	r3, [r7, #12]
 8000372:	601a      	str	r2, [r3, #0]
}
 8000374:	bf00      	nop
 8000376:	3714      	adds	r7, #20
 8000378:	46bd      	mov	sp, r7
 800037a:	f85d 7b04 	ldr.w	r7, [sp], #4
 800037e:	4770      	bx	lr
 8000380:	40023840 	.word	0x40023840

08000384 <uart2_receive_uint>:

volatile uint16_t debug_motor = 0;
volatile uint16_t debug_pulse_width = 0;

static uint16_t uart2_receive_uint(void)
{
 8000384:	b580      	push	{r7, lr}
 8000386:	b082      	sub	sp, #8
 8000388:	af00      	add	r7, sp, #0
    char ch;
    uint16_t number = 0;
 800038a:	2300      	movs	r3, #0
 800038c:	80fb      	strh	r3, [r7, #6]
    uint8_t has_digit = 0;
 800038e:	2300      	movs	r3, #0
 8000390:	717b      	strb	r3, [r7, #5]

    while (1)
    {
        if (uart2_read_char(&ch) == 0)
 8000392:	1d3b      	adds	r3, r7, #4
 8000394:	4618      	mov	r0, r3
 8000396:	f000 fa6f 	bl	8000878 <uart2_read_char>
 800039a:	4603      	mov	r3, r0
 800039c:	2b00      	cmp	r3, #0
 800039e:	d022      	beq.n	80003e6 <uart2_receive_uint+0x62>
        {
            continue;
        }

        if ((ch >= '0') && (ch <= '9'))
 80003a0:	793b      	ldrb	r3, [r7, #4]
 80003a2:	2b2f      	cmp	r3, #47	; 0x2f
 80003a4:	d911      	bls.n	80003ca <uart2_receive_uint+0x46>
 80003a6:	793b      	ldrb	r3, [r7, #4]
 80003a8:	2b39      	cmp	r3, #57	; 0x39
 80003aa:	d80e      	bhi.n	80003ca <uart2_receive_uint+0x46>
        {
            number = (uint16_t)((number * 10U) + (uint16_t)(ch - '0'));
 80003ac:	88fb      	ldrh	r3, [r7, #6]
 80003ae:	461a      	mov	r2, r3
 80003b0:	0092      	lsls	r2, r2, #2
 80003b2:	4413      	add	r3, r2
 80003b4:	005b      	lsls	r3, r3, #1
 80003b6:	b29a      	uxth	r2, r3
 80003b8:	793b      	ldrb	r3, [r7, #4]
 80003ba:	b29b      	uxth	r3, r3
 80003bc:	4413      	add	r3, r2
 80003be:	b29b      	uxth	r3, r3
 80003c0:	3b30      	subs	r3, #48	; 0x30
 80003c2:	80fb      	strh	r3, [r7, #6]
            has_digit = 1;
 80003c4:	2301      	movs	r3, #1
 80003c6:	717b      	strb	r3, [r7, #5]
 80003c8:	e00e      	b.n	80003e8 <uart2_receive_uint+0x64>
        }
        else if (((ch == ' ') || (ch == '\r') || (ch == '\n')) && (has_digit != 0))
 80003ca:	793b      	ldrb	r3, [r7, #4]
 80003cc:	2b20      	cmp	r3, #32
 80003ce:	d005      	beq.n	80003dc <uart2_receive_uint+0x58>
 80003d0:	793b      	ldrb	r3, [r7, #4]
 80003d2:	2b0d      	cmp	r3, #13
 80003d4:	d002      	beq.n	80003dc <uart2_receive_uint+0x58>
 80003d6:	793b      	ldrb	r3, [r7, #4]
 80003d8:	2b0a      	cmp	r3, #10
 80003da:	d1da      	bne.n	8000392 <uart2_receive_uint+0xe>
 80003dc:	797b      	ldrb	r3, [r7, #5]
 80003de:	2b00      	cmp	r3, #0
 80003e0:	d0d7      	beq.n	8000392 <uart2_receive_uint+0xe>
        {
            return number;
 80003e2:	88fb      	ldrh	r3, [r7, #6]
 80003e4:	e001      	b.n	80003ea <uart2_receive_uint+0x66>
            continue;
 80003e6:	bf00      	nop
        if (uart2_read_char(&ch) == 0)
 80003e8:	e7d3      	b.n	8000392 <uart2_receive_uint+0xe>
        }
    }
}
 80003ea:	4618      	mov	r0, r3
 80003ec:	3708      	adds	r7, #8
 80003ee:	46bd      	mov	sp, r7
 80003f0:	bd80      	pop	{r7, pc}
	...

080003f4 <main>:

int main(void)
{
 80003f4:	b580      	push	{r7, lr}
 80003f6:	b082      	sub	sp, #8
 80003f8:	af00      	add	r7, sp, #0
    uint16_t motor;
    uint16_t pulse_width;

    clock_init();
 80003fa:	f7ff ff8d 	bl	8000318 <clock_init>
    uart2_init();
 80003fe:	f000 f993 	bl	8000728 <uart2_init>
    pwm_init();
 8000402:	f000 f855 	bl	80004b0 <pwm_init>

    for (motor = 1; motor <= 4; motor++)
 8000406:	2301      	movs	r3, #1
 8000408:	80fb      	strh	r3, [r7, #6]
 800040a:	e009      	b.n	8000420 <main+0x2c>
    {
        control_motor((uint8_t)motor, 1100);
 800040c:	88fb      	ldrh	r3, [r7, #6]
 800040e:	b2db      	uxtb	r3, r3
 8000410:	f240 414c 	movw	r1, #1100	; 0x44c
 8000414:	4618      	mov	r0, r3
 8000416:	f000 f90d 	bl	8000634 <control_motor>
    for (motor = 1; motor <= 4; motor++)
 800041a:	88fb      	ldrh	r3, [r7, #6]
 800041c:	3301      	adds	r3, #1
 800041e:	80fb      	strh	r3, [r7, #6]
 8000420:	88fb      	ldrh	r3, [r7, #6]
 8000422:	2b04      	cmp	r3, #4
 8000424:	d9f2      	bls.n	800040c <main+0x18>
    }

    while (1)
    {
        motor = uart2_receive_uint();
 8000426:	f7ff ffad 	bl	8000384 <uart2_receive_uint>
 800042a:	4603      	mov	r3, r0
 800042c:	80fb      	strh	r3, [r7, #6]
        pulse_width = uart2_receive_uint();
 800042e:	f7ff ffa9 	bl	8000384 <uart2_receive_uint>
 8000432:	4603      	mov	r3, r0
 8000434:	80bb      	strh	r3, [r7, #4]

        if ((motor >= 1) && (motor <= 4) && (pulse_width >= PWM_MIN_US) && (pulse_width <= PWM_MAX_US))
 8000436:	88fb      	ldrh	r3, [r7, #6]
 8000438:	2b00      	cmp	r3, #0
 800043a:	d013      	beq.n	8000464 <main+0x70>
 800043c:	88fb      	ldrh	r3, [r7, #6]
 800043e:	2b04      	cmp	r3, #4
 8000440:	d810      	bhi.n	8000464 <main+0x70>
 8000442:	88bb      	ldrh	r3, [r7, #4]
 8000444:	f240 424b 	movw	r2, #1099	; 0x44b
 8000448:	4293      	cmp	r3, r2
 800044a:	d90b      	bls.n	8000464 <main+0x70>
 800044c:	88bb      	ldrh	r3, [r7, #4]
 800044e:	f240 729e 	movw	r2, #1950	; 0x79e
 8000452:	4293      	cmp	r3, r2
 8000454:	d806      	bhi.n	8000464 <main+0x70>
        {
            debug_motor = motor;
 8000456:	4a05      	ldr	r2, [pc, #20]	; (800046c <main+0x78>)
 8000458:	88fb      	ldrh	r3, [r7, #6]
 800045a:	8013      	strh	r3, [r2, #0]
            debug_pulse_width = pulse_width;
 800045c:	4a04      	ldr	r2, [pc, #16]	; (8000470 <main+0x7c>)
 800045e:	88bb      	ldrh	r3, [r7, #4]
 8000460:	8013      	strh	r3, [r2, #0]
 8000462:	e002      	b.n	800046a <main+0x76>
            //control_motor((uint8_t)motor, pulse_width);
        }
        else
        {
            uart2_send_string("ERR\r\n");
 8000464:	4803      	ldr	r0, [pc, #12]	; (8000474 <main+0x80>)
 8000466:	f000 fa2b 	bl	80008c0 <uart2_send_string>
        motor = uart2_receive_uint();
 800046a:	e7dc      	b.n	8000426 <main+0x32>
 800046c:	20000048 	.word	0x20000048
 8000470:	2000004a 	.word	0x2000004a
 8000474:	080009a8 	.word	0x080009a8

08000478 <pwm_clamp_pulse>:

#define GPIOB_ADDR 0x40020400UL
#define TIM4_ADDR  0x40000800UL

uint16_t pwm_clamp_pulse(uint16_t pulse_width)
{
 8000478:	b480      	push	{r7}
 800047a:	b083      	sub	sp, #12
 800047c:	af00      	add	r7, sp, #0
 800047e:	4603      	mov	r3, r0
 8000480:	80fb      	strh	r3, [r7, #6]
    if (pulse_width < PWM_MIN_US)
 8000482:	88fb      	ldrh	r3, [r7, #6]
 8000484:	f240 424b 	movw	r2, #1099	; 0x44b
 8000488:	4293      	cmp	r3, r2
 800048a:	d802      	bhi.n	8000492 <pwm_clamp_pulse+0x1a>
    {
        return PWM_MIN_US;
 800048c:	f240 434c 	movw	r3, #1100	; 0x44c
 8000490:	e008      	b.n	80004a4 <pwm_clamp_pulse+0x2c>
    }

    if (pulse_width > PWM_MAX_US)
 8000492:	88fb      	ldrh	r3, [r7, #6]
 8000494:	f240 729e 	movw	r2, #1950	; 0x79e
 8000498:	4293      	cmp	r3, r2
 800049a:	d902      	bls.n	80004a2 <pwm_clamp_pulse+0x2a>
    {
        return PWM_MAX_US;
 800049c:	f240 739e 	movw	r3, #1950	; 0x79e
 80004a0:	e000      	b.n	80004a4 <pwm_clamp_pulse+0x2c>
    }

    return pulse_width;
 80004a2:	88fb      	ldrh	r3, [r7, #6]
}
 80004a4:	4618      	mov	r0, r3
 80004a6:	370c      	adds	r7, #12
 80004a8:	46bd      	mov	sp, r7
 80004aa:	f85d 7b04 	ldr.w	r7, [sp], #4
 80004ae:	4770      	bx	lr

080004b0 <pwm_init>:

void pwm_init(void)
{
 80004b0:	b580      	push	{r7, lr}
 80004b2:	b092      	sub	sp, #72	; 0x48
 80004b4:	af00      	add	r7, sp, #0
    volatile uint32_t* GPIOB_MODER   = (volatile uint32_t*)(GPIOB_ADDR + 0x00UL);
 80004b6:	4b4e      	ldr	r3, [pc, #312]	; (80005f0 <pwm_init+0x140>)
 80004b8:	647b      	str	r3, [r7, #68]	; 0x44
    volatile uint32_t* GPIOB_OTYPER  = (volatile uint32_t*)(GPIOB_ADDR + 0x04UL);
 80004ba:	4b4e      	ldr	r3, [pc, #312]	; (80005f4 <pwm_init+0x144>)
 80004bc:	643b      	str	r3, [r7, #64]	; 0x40
    volatile uint32_t* GPIOB_OSPEEDR = (volatile uint32_t*)(GPIOB_ADDR + 0x08UL);
 80004be:	4b4e      	ldr	r3, [pc, #312]	; (80005f8 <pwm_init+0x148>)
 80004c0:	63fb      	str	r3, [r7, #60]	; 0x3c
    volatile uint32_t* GPIOB_PUPDR   = (volatile uint32_t*)(GPIOB_ADDR + 0x0CUL);
 80004c2:	4b4e      	ldr	r3, [pc, #312]	; (80005fc <pwm_init+0x14c>)
 80004c4:	63bb      	str	r3, [r7, #56]	; 0x38
    volatile uint32_t* GPIOB_AFRL    = (volatile uint32_t*)(GPIOB_ADDR + 0x20UL);
 80004c6:	4b4e      	ldr	r3, [pc, #312]	; (8000600 <pwm_init+0x150>)
 80004c8:	637b      	str	r3, [r7, #52]	; 0x34
    volatile uint32_t* GPIOB_AFRH    = (volatile uint32_t*)(GPIOB_ADDR + 0x24UL);
 80004ca:	4b4e      	ldr	r3, [pc, #312]	; (8000604 <pwm_init+0x154>)
 80004cc:	633b      	str	r3, [r7, #48]	; 0x30

    volatile uint32_t* TIM4_CR1   = (volatile uint32_t*)(TIM4_ADDR + 0x00UL);
 80004ce:	4b4e      	ldr	r3, [pc, #312]	; (8000608 <pwm_init+0x158>)
 80004d0:	62fb      	str	r3, [r7, #44]	; 0x2c
    volatile uint32_t* TIM4_EGR   = (volatile uint32_t*)(TIM4_ADDR + 0x14UL);
 80004d2:	4b4e      	ldr	r3, [pc, #312]	; (800060c <pwm_init+0x15c>)
 80004d4:	62bb      	str	r3, [r7, #40]	; 0x28
    volatile uint32_t* TIM4_CCMR1 = (volatile uint32_t*)(TIM4_ADDR + 0x18UL);
 80004d6:	4b4e      	ldr	r3, [pc, #312]	; (8000610 <pwm_init+0x160>)
 80004d8:	627b      	str	r3, [r7, #36]	; 0x24
    volatile uint32_t* TIM4_CCMR2 = (volatile uint32_t*)(TIM4_ADDR + 0x1CUL);
 80004da:	4b4e      	ldr	r3, [pc, #312]	; (8000614 <pwm_init+0x164>)
 80004dc:	623b      	str	r3, [r7, #32]
    volatile uint32_t* TIM4_CCER  = (volatile uint32_t*)(TIM4_ADDR + 0x20UL);
 80004de:	4b4e      	ldr	r3, [pc, #312]	; (8000618 <pwm_init+0x168>)
 80004e0:	61fb      	str	r3, [r7, #28]
    volatile uint32_t* TIM4_PSC   = (volatile uint32_t*)(TIM4_ADDR + 0x28UL);
 80004e2:	4b4e      	ldr	r3, [pc, #312]	; (800061c <pwm_init+0x16c>)
 80004e4:	61bb      	str	r3, [r7, #24]
    volatile uint32_t* TIM4_ARR   = (volatile uint32_t*)(TIM4_ADDR + 0x2CUL);
 80004e6:	4b4e      	ldr	r3, [pc, #312]	; (8000620 <pwm_init+0x170>)
 80004e8:	617b      	str	r3, [r7, #20]
    volatile uint32_t* TIM4_CCR1  = (volatile uint32_t*)(TIM4_ADDR + 0x34UL);
 80004ea:	4b4e      	ldr	r3, [pc, #312]	; (8000624 <pwm_init+0x174>)
 80004ec:	613b      	str	r3, [r7, #16]
    volatile uint32_t* TIM4_CCR2  = (volatile uint32_t*)(TIM4_ADDR + 0x38UL);
 80004ee:	4b4e      	ldr	r3, [pc, #312]	; (8000628 <pwm_init+0x178>)
 80004f0:	60fb      	str	r3, [r7, #12]
    volatile uint32_t* TIM4_CCR3  = (volatile uint32_t*)(TIM4_ADDR + 0x3CUL);
 80004f2:	4b4e      	ldr	r3, [pc, #312]	; (800062c <pwm_init+0x17c>)
 80004f4:	60bb      	str	r3, [r7, #8]
    volatile uint32_t* TIM4_CCR4  = (volatile uint32_t*)(TIM4_ADDR + 0x40UL);
 80004f6:	4b4e      	ldr	r3, [pc, #312]	; (8000630 <pwm_init+0x180>)
 80004f8:	607b      	str	r3, [r7, #4]

    clock_enable_AHB1(GPIOB_peripheral);
 80004fa:	2001      	movs	r0, #1
 80004fc:	f7ff ff12 	bl	8000324 <clock_enable_AHB1>
    clock_enable_APB1(TIM4_peripheral);
 8000500:	2002      	movs	r0, #2
 8000502:	f7ff ff27 	bl	8000354 <clock_enable_APB1>

    *TIM4_CR1 = 0; // tat timer
 8000506:	6afb      	ldr	r3, [r7, #44]	; 0x2c
 8000508:	2200      	movs	r2, #0
 800050a:	601a      	str	r2, [r3, #0]

    *GPIOB_MODER &= ~(0xFF << 12);
 800050c:	6c7b      	ldr	r3, [r7, #68]	; 0x44
 800050e:	681b      	ldr	r3, [r3, #0]
 8000510:	f423 227f 	bic.w	r2, r3, #1044480	; 0xff000
 8000514:	6c7b      	ldr	r3, [r7, #68]	; 0x44
 8000516:	601a      	str	r2, [r3, #0]
    *GPIOB_MODER |= (0xAA << 12); // PB6-PB9 -> alternate function mode
 8000518:	6c7b      	ldr	r3, [r7, #68]	; 0x44
 800051a:	681b      	ldr	r3, [r3, #0]
 800051c:	f443 222a 	orr.w	r2, r3, #696320	; 0xaa000
 8000520:	6c7b      	ldr	r3, [r7, #68]	; 0x44
 8000522:	601a      	str	r2, [r3, #0]

    *GPIOB_OTYPER &= ~((1 << 6) | (1 << 7) | (1 << 8) | (1 << 9)); // push - pull
 8000524:	6c3b      	ldr	r3, [r7, #64]	; 0x40
 8000526:	681b      	ldr	r3, [r3, #0]
 8000528:	f423 7270 	bic.w	r2, r3, #960	; 0x3c0
 800052c:	6c3b      	ldr	r3, [r7, #64]	; 0x40
 800052e:	601a      	str	r2, [r3, #0]

    *GPIOB_OSPEEDR &= ~(0xFF << 12);
 8000530:	6bfb      	ldr	r3, [r7, #60]	; 0x3c
 8000532:	681b      	ldr	r3, [r3, #0]
 8000534:	f423 227f 	bic.w	r2, r3, #1044480	; 0xff000
 8000538:	6bfb      	ldr	r3, [r7, #60]	; 0x3c
 800053a:	601a      	str	r2, [r3, #0]
    *GPIOB_OSPEEDR |= (0xAA << 12); // high speed
 800053c:	6bfb      	ldr	r3, [r7, #60]	; 0x3c
 800053e:	681b      	ldr	r3, [r3, #0]
 8000540:	f443 222a 	orr.w	r2, r3, #696320	; 0xaa000
 8000544:	6bfb      	ldr	r3, [r7, #60]	; 0x3c
 8000546:	601a      	str	r2, [r3, #0]

    *GPIOB_PUPDR &= ~(0xFF << 12); // no pull-up, pull-down.
 8000548:	6bbb      	ldr	r3, [r7, #56]	; 0x38
 800054a:	681b      	ldr	r3, [r3, #0]
 800054c:	f423 227f 	bic.w	r2, r3, #1044480	; 0xff000
 8000550:	6bbb      	ldr	r3, [r7, #56]	; 0x38
 8000552:	601a      	str	r2, [r3, #0]

    *GPIOB_AFRL &= ~((0xF << 24) | (0xF << 28));
 8000554:	6b7b      	ldr	r3, [r7, #52]	; 0x34
 8000556:	681b      	ldr	r3, [r3, #0]
 8000558:	f023 427f 	bic.w	r2, r3, #4278190080	; 0xff000000
 800055c:	6b7b      	ldr	r3, [r7, #52]	; 0x34
 800055e:	601a      	str	r2, [r3, #0]
    *GPIOB_AFRL |= ((2 << 24) | (2 << 28));
 8000560:	6b7b      	ldr	r3, [r7, #52]	; 0x34
 8000562:	681b      	ldr	r3, [r3, #0]
 8000564:	f043 5208 	orr.w	r2, r3, #570425344	; 0x22000000
 8000568:	6b7b      	ldr	r3, [r7, #52]	; 0x34
 800056a:	601a      	str	r2, [r3, #0]

    *GPIOB_AFRH &= ~((0xF << 0) | (0xF << 4));
 800056c:	6b3b      	ldr	r3, [r7, #48]	; 0x30
 800056e:	681b      	ldr	r3, [r3, #0]
 8000570:	f023 02ff 	bic.w	r2, r3, #255	; 0xff
 8000574:	6b3b      	ldr	r3, [r7, #48]	; 0x30
 8000576:	601a      	str	r2, [r3, #0]
    *GPIOB_AFRH |= ((2 << 0) | (2 << 4));
 8000578:	6b3b      	ldr	r3, [r7, #48]	; 0x30
 800057a:	681b      	ldr	r3, [r3, #0]
 800057c:	f043 0222 	orr.w	r2, r3, #34	; 0x22
 8000580:	6b3b      	ldr	r3, [r7, #48]	; 0x30
 8000582:	601a      	str	r2, [r3, #0]

    *TIM4_PSC = 100 - 1; // 100MHz / 100 = 1MHz => 1cnt = 1us 
 8000584:	69bb      	ldr	r3, [r7, #24]
 8000586:	2263      	movs	r2, #99	; 0x63
 8000588:	601a      	str	r2, [r3, #0]
    *TIM4_ARR = 20000 - 1; // => 20000 cnt = 20ms
 800058a:	697b      	ldr	r3, [r7, #20]
 800058c:	f644 621f 	movw	r2, #19999	; 0x4e1f
 8000590:	601a      	str	r2, [r3, #0]

    *TIM4_CCR1 = PWM_MIN_US;
 8000592:	693b      	ldr	r3, [r7, #16]
 8000594:	f240 424c 	movw	r2, #1100	; 0x44c
 8000598:	601a      	str	r2, [r3, #0]
    *TIM4_CCR2 = PWM_MIN_US;
 800059a:	68fb      	ldr	r3, [r7, #12]
 800059c:	f240 424c 	movw	r2, #1100	; 0x44c
 80005a0:	601a      	str	r2, [r3, #0]
    *TIM4_CCR3 = PWM_MIN_US;
 80005a2:	68bb      	ldr	r3, [r7, #8]
 80005a4:	f240 424c 	movw	r2, #1100	; 0x44c
 80005a8:	601a      	str	r2, [r3, #0]
    *TIM4_CCR4 = PWM_MIN_US;
 80005aa:	687b      	ldr	r3, [r7, #4]
 80005ac:	f240 424c 	movw	r2, #1100	; 0x44c
 80005b0:	601a      	str	r2, [r3, #0]

    *TIM4_CCMR1 = (6 << 4) | (1 << 3) | (6 << 12) | (1 << 11); 
 80005b2:	6a7b      	ldr	r3, [r7, #36]	; 0x24
 80005b4:	f646 0268 	movw	r2, #26728	; 0x6868
 80005b8:	601a      	str	r2, [r3, #0]
    // Mode 1 - channel 1,2 ; preload cr1, cr2

    *TIM4_CCMR2 = (6 << 4) | (1 << 3) | (6 << 12) | (1 << 11);
 80005ba:	6a3b      	ldr	r3, [r7, #32]
 80005bc:	f646 0268 	movw	r2, #26728	; 0x6868
 80005c0:	601a      	str	r2, [r3, #0]
    // Mode 1 - channel 3,4 ; preload cr3, cr4

    *TIM4_CCER = (1 << 0) | (1 << 4) | (1 << 8) | (1 << 12);
 80005c2:	69fb      	ldr	r3, [r7, #28]
 80005c4:	f241 1211 	movw	r2, #4369	; 0x1111
 80005c8:	601a      	str	r2, [r3, #0]

    *TIM4_CR1 |= (1 << 7);
 80005ca:	6afb      	ldr	r3, [r7, #44]	; 0x2c
 80005cc:	681b      	ldr	r3, [r3, #0]
 80005ce:	f043 0280 	orr.w	r2, r3, #128	; 0x80
 80005d2:	6afb      	ldr	r3, [r7, #44]	; 0x2c
 80005d4:	601a      	str	r2, [r3, #0]
    *TIM4_EGR = 1;
 80005d6:	6abb      	ldr	r3, [r7, #40]	; 0x28
 80005d8:	2201      	movs	r2, #1
 80005da:	601a      	str	r2, [r3, #0]
    *TIM4_CR1 |= 1; // bat timer
 80005dc:	6afb      	ldr	r3, [r7, #44]	; 0x2c
 80005de:	681b      	ldr	r3, [r3, #0]
 80005e0:	f043 0201 	orr.w	r2, r3, #1
 80005e4:	6afb      	ldr	r3, [r7, #44]	; 0x2c
 80005e6:	601a      	str	r2, [r3, #0]
}
 80005e8:	bf00      	nop
 80005ea:	3748      	adds	r7, #72	; 0x48
 80005ec:	46bd      	mov	sp, r7
 80005ee:	bd80      	pop	{r7, pc}
 80005f0:	40020400 	.word	0x40020400
 80005f4:	40020404 	.word	0x40020404
 80005f8:	40020408 	.word	0x40020408
 80005fc:	4002040c 	.word	0x4002040c
 8000600:	40020420 	.word	0x40020420
 8000604:	40020424 	.word	0x40020424
 8000608:	40000800 	.word	0x40000800
 800060c:	40000814 	.word	0x40000814
 8000610:	40000818 	.word	0x40000818
 8000614:	4000081c 	.word	0x4000081c
 8000618:	40000820 	.word	0x40000820
 800061c:	40000828 	.word	0x40000828
 8000620:	4000082c 	.word	0x4000082c
 8000624:	40000834 	.word	0x40000834
 8000628:	40000838 	.word	0x40000838
 800062c:	4000083c 	.word	0x4000083c
 8000630:	40000840 	.word	0x40000840

08000634 <control_motor>:

void control_motor(uint8_t motor, uint16_t pulse_width)
{
 8000634:	b590      	push	{r4, r7, lr}
 8000636:	b087      	sub	sp, #28
 8000638:	af00      	add	r7, sp, #0
 800063a:	4603      	mov	r3, r0
 800063c:	460a      	mov	r2, r1
 800063e:	71fb      	strb	r3, [r7, #7]
 8000640:	4613      	mov	r3, r2
 8000642:	80bb      	strh	r3, [r7, #4]
    volatile uint32_t* TIM4_CCR[4] =
 8000644:	4b0f      	ldr	r3, [pc, #60]	; (8000684 <control_motor+0x50>)
 8000646:	f107 0408 	add.w	r4, r7, #8
 800064a:	cb0f      	ldmia	r3, {r0, r1, r2, r3}
 800064c:	e884 000f 	stmia.w	r4, {r0, r1, r2, r3}
        (volatile uint32_t*)(TIM4_ADDR + 0x38),
        (volatile uint32_t*)(TIM4_ADDR + 0x3C),
        (volatile uint32_t*)(TIM4_ADDR + 0x40)
    };

    if ((motor < 1) || (motor > 4))
 8000650:	79fb      	ldrb	r3, [r7, #7]
 8000652:	2b00      	cmp	r3, #0
 8000654:	d012      	beq.n	800067c <control_motor+0x48>
 8000656:	79fb      	ldrb	r3, [r7, #7]
 8000658:	2b04      	cmp	r3, #4
 800065a:	d80f      	bhi.n	800067c <control_motor+0x48>
    {
        return;
    }

    *TIM4_CCR[motor - 1] = pwm_clamp_pulse(pulse_width);
 800065c:	88bb      	ldrh	r3, [r7, #4]
 800065e:	4618      	mov	r0, r3
 8000660:	f7ff ff0a 	bl	8000478 <pwm_clamp_pulse>
 8000664:	4603      	mov	r3, r0
 8000666:	461a      	mov	r2, r3
 8000668:	79fb      	ldrb	r3, [r7, #7]
 800066a:	3b01      	subs	r3, #1
 800066c:	009b      	lsls	r3, r3, #2
 800066e:	f107 0118 	add.w	r1, r7, #24
 8000672:	440b      	add	r3, r1
 8000674:	f853 3c10 	ldr.w	r3, [r3, #-16]
 8000678:	601a      	str	r2, [r3, #0]
 800067a:	e000      	b.n	800067e <control_motor+0x4a>
        return;
 800067c:	bf00      	nop
}
 800067e:	371c      	adds	r7, #28
 8000680:	46bd      	mov	sp, r7
 8000682:	bd90      	pop	{r4, r7, pc}
 8000684:	080009b0 	.word	0x080009b0

08000688 <NMI_Handler>:
/******************************************************************************/
/**
  * @brief This function handles Non maskable interrupt.
  */
void NMI_Handler(void)
{
 8000688:	b480      	push	{r7}
 800068a:	af00      	add	r7, sp, #0
  /* USER CODE BEGIN NonMaskableInt_IRQn 0 */

  /* USER CODE END NonMaskableInt_IRQn 0 */
  /* USER CODE BEGIN NonMaskableInt_IRQn 1 */
  while (1)
 800068c:	e7fe      	b.n	800068c <NMI_Handler+0x4>

0800068e <HardFault_Handler>:

/**
  * @brief This function handles Hard fault interrupt.
  */
void HardFault_Handler(void)
{
 800068e:	b480      	push	{r7}
 8000690:	af00      	add	r7, sp, #0
  /* USER CODE BEGIN HardFault_IRQn 0 */

  /* USER CODE END HardFault_IRQn 0 */
  while (1)
 8000692:	e7fe      	b.n	8000692 <HardFault_Handler+0x4>

08000694 <MemManage_Handler>:

/**
  * @brief This function handles Memory management fault.
  */
void MemManage_Handler(void)
{
 8000694:	b480      	push	{r7}
 8000696:	af00      	add	r7, sp, #0
  /* USER CODE BEGIN MemoryManagement_IRQn 0 */

  /* USER CODE END MemoryManagement_IRQn 0 */
  while (1)
 8000698:	e7fe      	b.n	8000698 <MemManage_Handler+0x4>

0800069a <BusFault_Handler>:

/**
  * @brief This function handles Pre-fetch fault, memory access fault.
  */
void BusFault_Handler(void)
{
 800069a:	b480      	push	{r7}
 800069c:	af00      	add	r7, sp, #0
  /* USER CODE BEGIN BusFault_IRQn 0 */

  /* USER CODE END BusFault_IRQn 0 */
  while (1)
 800069e:	e7fe      	b.n	800069e <BusFault_Handler+0x4>

080006a0 <UsageFault_Handler>:

/**
  * @brief This function handles Undefined instruction or illegal state.
  */
void UsageFault_Handler(void)
{
 80006a0:	b480      	push	{r7}
 80006a2:	af00      	add	r7, sp, #0
  /* USER CODE BEGIN UsageFault_IRQn 0 */

  /* USER CODE END UsageFault_IRQn 0 */
  while (1)
 80006a4:	e7fe      	b.n	80006a4 <UsageFault_Handler+0x4>

080006a6 <SVC_Handler>:

/**
  * @brief This function handles System service call via SWI instruction.
  */
void SVC_Handler(void)
{
 80006a6:	b480      	push	{r7}
 80006a8:	af00      	add	r7, sp, #0

  /* USER CODE END SVCall_IRQn 0 */
  /* USER CODE BEGIN SVCall_IRQn 1 */

  /* USER CODE END SVCall_IRQn 1 */
}
 80006aa:	bf00      	nop
 80006ac:	46bd      	mov	sp, r7
 80006ae:	f85d 7b04 	ldr.w	r7, [sp], #4
 80006b2:	4770      	bx	lr

080006b4 <DebugMon_Handler>:

/**
  * @brief This function handles Debug monitor.
  */
void DebugMon_Handler(void)
{
 80006b4:	b480      	push	{r7}
 80006b6:	af00      	add	r7, sp, #0

  /* USER CODE END DebugMonitor_IRQn 0 */
  /* USER CODE BEGIN DebugMonitor_IRQn 1 */

  /* USER CODE END DebugMonitor_IRQn 1 */
}
 80006b8:	bf00      	nop
 80006ba:	46bd      	mov	sp, r7
 80006bc:	f85d 7b04 	ldr.w	r7, [sp], #4
 80006c0:	4770      	bx	lr

080006c2 <PendSV_Handler>:

/**
  * @brief This function handles Pendable request for system service.
  */
void PendSV_Handler(void)
{
 80006c2:	b480      	push	{r7}
 80006c4:	af00      	add	r7, sp, #0

  /* USER CODE END PendSV_IRQn 0 */
  /* USER CODE BEGIN PendSV_IRQn 1 */

  /* USER CODE END PendSV_IRQn 1 */
}
 80006c6:	bf00      	nop
 80006c8:	46bd      	mov	sp, r7
 80006ca:	f85d 7b04 	ldr.w	r7, [sp], #4
 80006ce:	4770      	bx	lr

080006d0 <SysTick_Handler>:

/**
  * @brief This function handles System tick timer.
  */
void SysTick_Handler(void)
{
 80006d0:	b480      	push	{r7}
 80006d2:	af00      	add	r7, sp, #0

  /* USER CODE END SysTick_IRQn 0 */
  /* USER CODE BEGIN SysTick_IRQn 1 */

  /* USER CODE END SysTick_IRQn 1 */
}
 80006d4:	bf00      	nop
 80006d6:	46bd      	mov	sp, r7
 80006d8:	f85d 7b04 	ldr.w	r7, [sp], #4
 80006dc:	4770      	bx	lr
	...

080006e0 <SystemInit>:
  *         configuration.
  * @param  None
  * @retval None
  */
void SystemInit(void)
{
 80006e0:	b480      	push	{r7}
 80006e2:	af00      	add	r7, sp, #0
  /* FPU settings ------------------------------------------------------------*/
  #if (__FPU_PRESENT == 1) && (__FPU_USED == 1)
    SCB->CPACR |= ((3UL << 10*2)|(3UL << 11*2));  /* set CP10 and CP11 Full Access */
 80006e4:	4b06      	ldr	r3, [pc, #24]	; (8000700 <SystemInit+0x20>)
 80006e6:	f8d3 3088 	ldr.w	r3, [r3, #136]	; 0x88
 80006ea:	4a05      	ldr	r2, [pc, #20]	; (8000700 <SystemInit+0x20>)
 80006ec:	f443 0370 	orr.w	r3, r3, #15728640	; 0xf00000
 80006f0:	f8c2 3088 	str.w	r3, [r2, #136]	; 0x88

  /* Configure the Vector Table location -------------------------------------*/
#if defined(USER_VECT_TAB_ADDRESS)
  SCB->VTOR = VECT_TAB_BASE_ADDRESS | VECT_TAB_OFFSET; /* Vector Table Relocation in Internal SRAM */
#endif /* USER_VECT_TAB_ADDRESS */
}
 80006f4:	bf00      	nop
 80006f6:	46bd      	mov	sp, r7
 80006f8:	f85d 7b04 	ldr.w	r7, [sp], #4
 80006fc:	4770      	bx	lr
 80006fe:	bf00      	nop
 8000700:	e000ed00 	.word	0xe000ed00

08000704 <uart2_calculate_brr>:
#define USART_CR1_UE    (1 << 13)
#define USART_CR1_TE    (1 << 3)
#define USART_CR1_RE    (1 << 2)

static uint32_t uart2_calculate_brr(uint32_t pclk, uint32_t baudrate)
{
 8000704:	b480      	push	{r7}
 8000706:	b083      	sub	sp, #12
 8000708:	af00      	add	r7, sp, #0
 800070a:	6078      	str	r0, [r7, #4]
 800070c:	6039      	str	r1, [r7, #0]
    return (pclk + (baudrate / 2U)) / baudrate;
 800070e:	683b      	ldr	r3, [r7, #0]
 8000710:	085a      	lsrs	r2, r3, #1
 8000712:	687b      	ldr	r3, [r7, #4]
 8000714:	441a      	add	r2, r3
 8000716:	683b      	ldr	r3, [r7, #0]
 8000718:	fbb2 f3f3 	udiv	r3, r2, r3
}
 800071c:	4618      	mov	r0, r3
 800071e:	370c      	adds	r7, #12
 8000720:	46bd      	mov	sp, r7
 8000722:	f85d 7b04 	ldr.w	r7, [sp], #4
 8000726:	4770      	bx	lr

08000728 <uart2_init>:

void uart2_init(void)
{
 8000728:	b598      	push	{r3, r4, r7, lr}
 800072a:	af00      	add	r7, sp, #0
    clock_enable_AHB1(GPIOA_peripheral);
 800072c:	2000      	movs	r0, #0
 800072e:	f7ff fdf9 	bl	8000324 <clock_enable_AHB1>
    clock_enable_APB1(USART2_peripheral);
 8000732:	2011      	movs	r0, #17
 8000734:	f7ff fe0e 	bl	8000354 <clock_enable_APB1>

    *GPIOA_MODER &= ~((0b11 << 4) | (0b11 << 6));
 8000738:	4b37      	ldr	r3, [pc, #220]	; (8000818 <uart2_init+0xf0>)
 800073a:	681b      	ldr	r3, [r3, #0]
 800073c:	681a      	ldr	r2, [r3, #0]
 800073e:	4b36      	ldr	r3, [pc, #216]	; (8000818 <uart2_init+0xf0>)
 8000740:	681b      	ldr	r3, [r3, #0]
 8000742:	f022 02f0 	bic.w	r2, r2, #240	; 0xf0
 8000746:	601a      	str	r2, [r3, #0]
    *GPIOA_MODER |=  ((0b10 << 4) | (0b10 << 6)); // PA2, PA3 alternate function
 8000748:	4b33      	ldr	r3, [pc, #204]	; (8000818 <uart2_init+0xf0>)
 800074a:	681b      	ldr	r3, [r3, #0]
 800074c:	681a      	ldr	r2, [r3, #0]
 800074e:	4b32      	ldr	r3, [pc, #200]	; (8000818 <uart2_init+0xf0>)
 8000750:	681b      	ldr	r3, [r3, #0]
 8000752:	f042 02a0 	orr.w	r2, r2, #160	; 0xa0
 8000756:	601a      	str	r2, [r3, #0]

    *GPIOA_OTYPER &= ~((1 << 2) | (1 << 3)); // push-pull
 8000758:	4b30      	ldr	r3, [pc, #192]	; (800081c <uart2_init+0xf4>)
 800075a:	681b      	ldr	r3, [r3, #0]
 800075c:	681a      	ldr	r2, [r3, #0]
 800075e:	4b2f      	ldr	r3, [pc, #188]	; (800081c <uart2_init+0xf4>)
 8000760:	681b      	ldr	r3, [r3, #0]
 8000762:	f022 020c 	bic.w	r2, r2, #12
 8000766:	601a      	str	r2, [r3, #0]

    *GPIOA_OSPEEDR &= ~((0b11 << 4) | (0b11 << 6));
 8000768:	4b2d      	ldr	r3, [pc, #180]	; (8000820 <uart2_init+0xf8>)
 800076a:	681b      	ldr	r3, [r3, #0]
 800076c:	681a      	ldr	r2, [r3, #0]
 800076e:	4b2c      	ldr	r3, [pc, #176]	; (8000820 <uart2_init+0xf8>)
 8000770:	681b      	ldr	r3, [r3, #0]
 8000772:	f022 02f0 	bic.w	r2, r2, #240	; 0xf0
 8000776:	601a      	str	r2, [r3, #0]
    *GPIOA_OSPEEDR |=  ((0b10 << 4) | (0b10 << 6)); // fast speed
 8000778:	4b29      	ldr	r3, [pc, #164]	; (8000820 <uart2_init+0xf8>)
 800077a:	681b      	ldr	r3, [r3, #0]
 800077c:	681a      	ldr	r2, [r3, #0]
 800077e:	4b28      	ldr	r3, [pc, #160]	; (8000820 <uart2_init+0xf8>)
 8000780:	681b      	ldr	r3, [r3, #0]
 8000782:	f042 02a0 	orr.w	r2, r2, #160	; 0xa0
 8000786:	601a      	str	r2, [r3, #0]

    *GPIOA_PUPDR &= ~((0b11 << 4) | (0b11 << 6));
 8000788:	4b26      	ldr	r3, [pc, #152]	; (8000824 <uart2_init+0xfc>)
 800078a:	681b      	ldr	r3, [r3, #0]
 800078c:	681a      	ldr	r2, [r3, #0]
 800078e:	4b25      	ldr	r3, [pc, #148]	; (8000824 <uart2_init+0xfc>)
 8000790:	681b      	ldr	r3, [r3, #0]
 8000792:	f022 02f0 	bic.w	r2, r2, #240	; 0xf0
 8000796:	601a      	str	r2, [r3, #0]
    *GPIOA_PUPDR |=  ((0b01 << 4) | (0b01 << 6)); // pull up
 8000798:	4b22      	ldr	r3, [pc, #136]	; (8000824 <uart2_init+0xfc>)
 800079a:	681b      	ldr	r3, [r3, #0]
 800079c:	681a      	ldr	r2, [r3, #0]
 800079e:	4b21      	ldr	r3, [pc, #132]	; (8000824 <uart2_init+0xfc>)
 80007a0:	681b      	ldr	r3, [r3, #0]
 80007a2:	f042 0250 	orr.w	r2, r2, #80	; 0x50
 80007a6:	601a      	str	r2, [r3, #0]

    *GPIOA_AFRL &= ~((0xF << 8) | (0xF << 12));
 80007a8:	4b1f      	ldr	r3, [pc, #124]	; (8000828 <uart2_init+0x100>)
 80007aa:	681b      	ldr	r3, [r3, #0]
 80007ac:	681a      	ldr	r2, [r3, #0]
 80007ae:	4b1e      	ldr	r3, [pc, #120]	; (8000828 <uart2_init+0x100>)
 80007b0:	681b      	ldr	r3, [r3, #0]
 80007b2:	f422 427f 	bic.w	r2, r2, #65280	; 0xff00
 80007b6:	601a      	str	r2, [r3, #0]
    *GPIOA_AFRL |=  ((7 << 8) | (7 << 12)); // AF7 USART2
 80007b8:	4b1b      	ldr	r3, [pc, #108]	; (8000828 <uart2_init+0x100>)
 80007ba:	681b      	ldr	r3, [r3, #0]
 80007bc:	681a      	ldr	r2, [r3, #0]
 80007be:	4b1a      	ldr	r3, [pc, #104]	; (8000828 <uart2_init+0x100>)
 80007c0:	681b      	ldr	r3, [r3, #0]
 80007c2:	f442 42ee 	orr.w	r2, r2, #30464	; 0x7700
 80007c6:	601a      	str	r2, [r3, #0]

    *USART2_CR1 &= ~USART_CR1_UE;
 80007c8:	4b18      	ldr	r3, [pc, #96]	; (800082c <uart2_init+0x104>)
 80007ca:	681b      	ldr	r3, [r3, #0]
 80007cc:	681a      	ldr	r2, [r3, #0]
 80007ce:	4b17      	ldr	r3, [pc, #92]	; (800082c <uart2_init+0x104>)
 80007d0:	681b      	ldr	r3, [r3, #0]
 80007d2:	f422 5200 	bic.w	r2, r2, #8192	; 0x2000
 80007d6:	601a      	str	r2, [r3, #0]
    *USART2_CR2 = 0;
 80007d8:	4b15      	ldr	r3, [pc, #84]	; (8000830 <uart2_init+0x108>)
 80007da:	681b      	ldr	r3, [r3, #0]
 80007dc:	2200      	movs	r2, #0
 80007de:	601a      	str	r2, [r3, #0]
    *USART2_CR3 = 0;
 80007e0:	4b14      	ldr	r3, [pc, #80]	; (8000834 <uart2_init+0x10c>)
 80007e2:	681b      	ldr	r3, [r3, #0]
 80007e4:	2200      	movs	r2, #0
 80007e6:	601a      	str	r2, [r3, #0]
    *USART2_BRR = uart2_calculate_brr(RCC_APB1_CLOCK_HZ, UART2_BAUDRATE);
 80007e8:	4b13      	ldr	r3, [pc, #76]	; (8000838 <uart2_init+0x110>)
 80007ea:	681c      	ldr	r4, [r3, #0]
 80007ec:	f44f 31e1 	mov.w	r1, #115200	; 0x1c200
 80007f0:	4812      	ldr	r0, [pc, #72]	; (800083c <uart2_init+0x114>)
 80007f2:	f7ff ff87 	bl	8000704 <uart2_calculate_brr>
 80007f6:	4603      	mov	r3, r0
 80007f8:	6023      	str	r3, [r4, #0]
    *USART2_CR1 = USART_CR1_TE | USART_CR1_RE;
 80007fa:	4b0c      	ldr	r3, [pc, #48]	; (800082c <uart2_init+0x104>)
 80007fc:	681b      	ldr	r3, [r3, #0]
 80007fe:	220c      	movs	r2, #12
 8000800:	601a      	str	r2, [r3, #0]
    *USART2_CR1 |= USART_CR1_UE;
 8000802:	4b0a      	ldr	r3, [pc, #40]	; (800082c <uart2_init+0x104>)
 8000804:	681b      	ldr	r3, [r3, #0]
 8000806:	681a      	ldr	r2, [r3, #0]
 8000808:	4b08      	ldr	r3, [pc, #32]	; (800082c <uart2_init+0x104>)
 800080a:	681b      	ldr	r3, [r3, #0]
 800080c:	f442 5200 	orr.w	r2, r2, #8192	; 0x2000
 8000810:	601a      	str	r2, [r3, #0]
}
 8000812:	bf00      	nop
 8000814:	bd98      	pop	{r3, r4, r7, pc}
 8000816:	bf00      	nop
 8000818:	20000000 	.word	0x20000000
 800081c:	20000004 	.word	0x20000004
 8000820:	20000008 	.word	0x20000008
 8000824:	2000000c 	.word	0x2000000c
 8000828:	20000010 	.word	0x20000010
 800082c:	20000020 	.word	0x20000020
 8000830:	20000024 	.word	0x20000024
 8000834:	20000028 	.word	0x20000028
 8000838:	2000001c 	.word	0x2000001c
 800083c:	02faf080 	.word	0x02faf080

08000840 <uart2_send_char>:

void uart2_send_char(char data)
{
 8000840:	b480      	push	{r7}
 8000842:	b083      	sub	sp, #12
 8000844:	af00      	add	r7, sp, #0
 8000846:	4603      	mov	r3, r0
 8000848:	71fb      	strb	r3, [r7, #7]
    while ((*USART2_SR & USART_SR_TXE) == 0);
 800084a:	bf00      	nop
 800084c:	4b08      	ldr	r3, [pc, #32]	; (8000870 <uart2_send_char+0x30>)
 800084e:	681b      	ldr	r3, [r3, #0]
 8000850:	681b      	ldr	r3, [r3, #0]
 8000852:	f003 0380 	and.w	r3, r3, #128	; 0x80
 8000856:	2b00      	cmp	r3, #0
 8000858:	d0f8      	beq.n	800084c <uart2_send_char+0xc>
    *USART2_DR = (uint8_t)data;
 800085a:	4b06      	ldr	r3, [pc, #24]	; (8000874 <uart2_send_char+0x34>)
 800085c:	681b      	ldr	r3, [r3, #0]
 800085e:	79fa      	ldrb	r2, [r7, #7]
 8000860:	601a      	str	r2, [r3, #0]
} // send 1 ky tu
 8000862:	bf00      	nop
 8000864:	370c      	adds	r7, #12
 8000866:	46bd      	mov	sp, r7
 8000868:	f85d 7b04 	ldr.w	r7, [sp], #4
 800086c:	4770      	bx	lr
 800086e:	bf00      	nop
 8000870:	20000014 	.word	0x20000014
 8000874:	20000018 	.word	0x20000018

08000878 <uart2_read_char>:

int uart2_read_char(char *data)
{
 8000878:	b480      	push	{r7}
 800087a:	b083      	sub	sp, #12
 800087c:	af00      	add	r7, sp, #0
 800087e:	6078      	str	r0, [r7, #4]
    if (data == 0)
 8000880:	687b      	ldr	r3, [r7, #4]
 8000882:	2b00      	cmp	r3, #0
 8000884:	d101      	bne.n	800088a <uart2_read_char+0x12>
    {
        return 0;
 8000886:	2300      	movs	r3, #0
 8000888:	e00f      	b.n	80008aa <uart2_read_char+0x32>
    }

    if ((*USART2_SR & USART_SR_RXNE) == 0)
 800088a:	4b0b      	ldr	r3, [pc, #44]	; (80008b8 <uart2_read_char+0x40>)
 800088c:	681b      	ldr	r3, [r3, #0]
 800088e:	681b      	ldr	r3, [r3, #0]
 8000890:	f003 0320 	and.w	r3, r3, #32
 8000894:	2b00      	cmp	r3, #0
 8000896:	d101      	bne.n	800089c <uart2_read_char+0x24>
    {
        return 0;
 8000898:	2300      	movs	r3, #0
 800089a:	e006      	b.n	80008aa <uart2_read_char+0x32>
    }

    *data = (char)(*USART2_DR & 0xFF);
 800089c:	4b07      	ldr	r3, [pc, #28]	; (80008bc <uart2_read_char+0x44>)
 800089e:	681b      	ldr	r3, [r3, #0]
 80008a0:	681b      	ldr	r3, [r3, #0]
 80008a2:	b2da      	uxtb	r2, r3
 80008a4:	687b      	ldr	r3, [r7, #4]
 80008a6:	701a      	strb	r2, [r3, #0]
    return 1;
 80008a8:	2301      	movs	r3, #1
}
 80008aa:	4618      	mov	r0, r3
 80008ac:	370c      	adds	r7, #12
 80008ae:	46bd      	mov	sp, r7
 80008b0:	f85d 7b04 	ldr.w	r7, [sp], #4
 80008b4:	4770      	bx	lr
 80008b6:	bf00      	nop
 80008b8:	20000014 	.word	0x20000014
 80008bc:	20000018 	.word	0x20000018

080008c0 <uart2_send_string>:

void uart2_send_string(const char *str)
{
 80008c0:	b580      	push	{r7, lr}
 80008c2:	b082      	sub	sp, #8
 80008c4:	af00      	add	r7, sp, #0
 80008c6:	6078      	str	r0, [r7, #4]
    if (str == 0)
 80008c8:	687b      	ldr	r3, [r7, #4]
 80008ca:	2b00      	cmp	r3, #0
 80008cc:	d00d      	beq.n	80008ea <uart2_send_string+0x2a>
    {
        return;
    }

    while (*str != '\0')
 80008ce:	e007      	b.n	80008e0 <uart2_send_string+0x20>
    {
        uart2_send_char(*str);
 80008d0:	687b      	ldr	r3, [r7, #4]
 80008d2:	781b      	ldrb	r3, [r3, #0]
 80008d4:	4618      	mov	r0, r3
 80008d6:	f7ff ffb3 	bl	8000840 <uart2_send_char>
        str++;
 80008da:	687b      	ldr	r3, [r7, #4]
 80008dc:	3301      	adds	r3, #1
 80008de:	607b      	str	r3, [r7, #4]
    while (*str != '\0')
 80008e0:	687b      	ldr	r3, [r7, #4]
 80008e2:	781b      	ldrb	r3, [r3, #0]
 80008e4:	2b00      	cmp	r3, #0
 80008e6:	d1f3      	bne.n	80008d0 <uart2_send_string+0x10>
 80008e8:	e000      	b.n	80008ec <uart2_send_string+0x2c>
        return;
 80008ea:	bf00      	nop
    }
} // send 1 chuoi => vong lap send 1 ky tu
 80008ec:	3708      	adds	r7, #8
 80008ee:	46bd      	mov	sp, r7
 80008f0:	bd80      	pop	{r7, pc}
	...

080008f4 <Reset_Handler>:

    .section  .text.Reset_Handler
  .weak  Reset_Handler
  .type  Reset_Handler, %function
Reset_Handler:  
  ldr   sp, =_estack    		 /* set stack pointer */
 80008f4:	f8df d034 	ldr.w	sp, [pc, #52]	; 800092c <LoopFillZerobss+0x12>

/* Copy the data segment initializers from flash to SRAM */  
  ldr r0, =_sdata
 80008f8:	480d      	ldr	r0, [pc, #52]	; (8000930 <LoopFillZerobss+0x16>)
  ldr r1, =_edata
 80008fa:	490e      	ldr	r1, [pc, #56]	; (8000934 <LoopFillZerobss+0x1a>)
  ldr r2, =_sidata
 80008fc:	4a0e      	ldr	r2, [pc, #56]	; (8000938 <LoopFillZerobss+0x1e>)
  movs r3, #0
 80008fe:	2300      	movs	r3, #0
  b LoopCopyDataInit
 8000900:	e002      	b.n	8000908 <LoopCopyDataInit>

08000902 <CopyDataInit>:

CopyDataInit:
  ldr r4, [r2, r3]
 8000902:	58d4      	ldr	r4, [r2, r3]
  str r4, [r0, r3]
 8000904:	50c4      	str	r4, [r0, r3]
  adds r3, r3, #4
 8000906:	3304      	adds	r3, #4

08000908 <LoopCopyDataInit>:

LoopCopyDataInit:
  adds r4, r0, r3
 8000908:	18c4      	adds	r4, r0, r3
  cmp r4, r1
 800090a:	428c      	cmp	r4, r1
  bcc CopyDataInit
 800090c:	d3f9      	bcc.n	8000902 <CopyDataInit>
  
/* Zero fill the bss segment. */
  ldr r2, =_sbss
 800090e:	4a0b      	ldr	r2, [pc, #44]	; (800093c <LoopFillZerobss+0x22>)
  ldr r4, =_ebss
 8000910:	4c0b      	ldr	r4, [pc, #44]	; (8000940 <LoopFillZerobss+0x26>)
  movs r3, #0
 8000912:	2300      	movs	r3, #0
  b LoopFillZerobss
 8000914:	e001      	b.n	800091a <LoopFillZerobss>

08000916 <FillZerobss>:

FillZerobss:
  str  r3, [r2]
 8000916:	6013      	str	r3, [r2, #0]
  adds r2, r2, #4
 8000918:	3204      	adds	r2, #4

0800091a <LoopFillZerobss>:

LoopFillZerobss:
  cmp r2, r4
 800091a:	42a2      	cmp	r2, r4
  bcc FillZerobss
 800091c:	d3fb      	bcc.n	8000916 <FillZerobss>

/* Call the clock system intitialization function.*/
  bl  SystemInit   
 800091e:	f7ff fedf 	bl	80006e0 <SystemInit>
/* Call static constructors */
    bl __libc_init_array
 8000922:	f000 f811 	bl	8000948 <__libc_init_array>
/* Call the application's entry point.*/
  bl  main
 8000926:	f7ff fd65 	bl	80003f4 <main>
  bx  lr    
 800092a:	4770      	bx	lr
  ldr   sp, =_estack    		 /* set stack pointer */
 800092c:	20020000 	.word	0x20020000
  ldr r0, =_sdata
 8000930:	20000000 	.word	0x20000000
  ldr r1, =_edata
 8000934:	2000002c 	.word	0x2000002c
  ldr r2, =_sidata
 8000938:	080009c8 	.word	0x080009c8
  ldr r2, =_sbss
 800093c:	2000002c 	.word	0x2000002c
  ldr r4, =_ebss
 8000940:	2000004c 	.word	0x2000004c

08000944 <ADC_IRQHandler>:
 * @retval None       
*/
    .section  .text.Default_Handler,"ax",%progbits
Default_Handler:
Infinite_Loop:
  b  Infinite_Loop
 8000944:	e7fe      	b.n	8000944 <ADC_IRQHandler>
	...

08000948 <__libc_init_array>:
 8000948:	b570      	push	{r4, r5, r6, lr}
 800094a:	4d0d      	ldr	r5, [pc, #52]	; (8000980 <__libc_init_array+0x38>)
 800094c:	4c0d      	ldr	r4, [pc, #52]	; (8000984 <__libc_init_array+0x3c>)
 800094e:	1b64      	subs	r4, r4, r5
 8000950:	10a4      	asrs	r4, r4, #2
 8000952:	2600      	movs	r6, #0
 8000954:	42a6      	cmp	r6, r4
 8000956:	d109      	bne.n	800096c <__libc_init_array+0x24>
 8000958:	4d0b      	ldr	r5, [pc, #44]	; (8000988 <__libc_init_array+0x40>)
 800095a:	4c0c      	ldr	r4, [pc, #48]	; (800098c <__libc_init_array+0x44>)
 800095c:	f000 f818 	bl	8000990 <_init>
 8000960:	1b64      	subs	r4, r4, r5
 8000962:	10a4      	asrs	r4, r4, #2
 8000964:	2600      	movs	r6, #0
 8000966:	42a6      	cmp	r6, r4
 8000968:	d105      	bne.n	8000976 <__libc_init_array+0x2e>
 800096a:	bd70      	pop	{r4, r5, r6, pc}
 800096c:	f855 3b04 	ldr.w	r3, [r5], #4
 8000970:	4798      	blx	r3
 8000972:	3601      	adds	r6, #1
 8000974:	e7ee      	b.n	8000954 <__libc_init_array+0xc>
 8000976:	f855 3b04 	ldr.w	r3, [r5], #4
 800097a:	4798      	blx	r3
 800097c:	3601      	adds	r6, #1
 800097e:	e7f2      	b.n	8000966 <__libc_init_array+0x1e>
 8000980:	080009c0 	.word	0x080009c0
 8000984:	080009c0 	.word	0x080009c0
 8000988:	080009c0 	.word	0x080009c0
 800098c:	080009c4 	.word	0x080009c4

08000990 <_init>:
 8000990:	b5f8      	push	{r3, r4, r5, r6, r7, lr}
 8000992:	bf00      	nop
 8000994:	bcf8      	pop	{r3, r4, r5, r6, r7}
 8000996:	bc08      	pop	{r3}
 8000998:	469e      	mov	lr, r3
 800099a:	4770      	bx	lr

0800099c <_fini>:
 800099c:	b5f8      	push	{r3, r4, r5, r6, r7, lr}
 800099e:	bf00      	nop
 80009a0:	bcf8      	pop	{r3, r4, r5, r6, r7}
 80009a2:	bc08      	pop	{r3}
 80009a4:	469e      	mov	lr, r3
 80009a6:	4770      	bx	lr
